; Function Attrs: mustprogress uwtable
define hidden void @_ZN4cvc58internal9TrustNode11mkTrustNodeENS0_13TrustNodeKindENS0_12NodeTemplateILb1EEEPNS0_14ProofGeneratorE(ptr dead_on_unwind noalias writable writeonly sret(%"class.cvc5::internal::TrustNode") align 8 captures(none) initializes((0, 4), (8, 16)) %0, i32 noundef %1, ptr noundef readonly captures(none) %2, ptr noundef %3) local_unnamed_addr #4 align 2 personality ptr @__gxx_personality_v0 {
  %5 = alloca %"class.cvc5::internal::NodeTemplate", align 8
  %6 = load ptr, ptr %2, align 8, !tbaa !3
  store ptr %6, ptr %5, align 8, !tbaa !3
  %7 = load i64, ptr %6, align 8
  %8 = lshr i64 %7, 40
  %9 = trunc nuw nsw i64 %8 to i32
  %10 = and i32 %9, 1048575
  %11 = icmp samesign ult i32 %10, 1048574
  br i1 %11, label %12, label %17, !prof !9

12:                                               ; preds = %4
  %13 = add i64 %7, 1099511627776
  %14 = and i64 %13, 1152920405095219200
  %15 = and i64 %7, -1152920405095219201
  %16 = or disjoint i64 %14, %15
  store i64 %16, ptr %6, align 8
  br label %_ZN4cvc58internal12NodeTemplateILb1EEC2ERKS2_.exit

17:                                               ; preds = %4
  %18 = icmp eq i32 %10, 1048574
  br i1 %18, label %19, label %_ZN4cvc58internal12NodeTemplateILb1EEC2ERKS2_.exit, !prof !10

19:                                               ; preds = %17
  %20 = or i64 %7, 1152920405095219200
  store i64 %20, ptr %6, align 8
  tail call void @_ZN4cvc58internal4expr9NodeValue20markRefCountMaxedOutEv(ptr noundef nonnull align 8 dereferenceable(24) %6)
  %.pre = load i64, ptr %6, align 8
  br label %_ZN4cvc58internal12NodeTemplateILb1EEC2ERKS2_.exit

_ZN4cvc58internal12NodeTemplateILb1EEC2ERKS2_.exit: ; preds = %12, %17, %19
  %21 = phi i64 [ %16, %12 ], [ %7, %17 ], [ %.pre, %19 ]
  store i32 %1, ptr %0, align 8, !tbaa !26
  %22 = getelementptr inbounds nuw i8, ptr %0, i64 8
  store ptr %6, ptr %22, align 8, !tbaa !3
  %23 = lshr i64 %21, 40
  %24 = trunc nuw nsw i64 %23 to i32
  %25 = and i32 %24, 1048575
  %26 = icmp samesign ult i32 %25, 1048574
  br i1 %26, label %27, label %32, !prof !9

27:                                               ; preds = %_ZN4cvc58internal12NodeTemplateILb1EEC2ERKS2_.exit
  %28 = add i64 %21, 1099511627776
  %29 = and i64 %28, 1152920405095219200
  %30 = and i64 %21, -1152920405095219201
  %31 = or disjoint i64 %29, %30
  store i64 %31, ptr %6, align 8
  br label %36

32:                                               ; preds = %_ZN4cvc58internal12NodeTemplateILb1EEC2ERKS2_.exit
  %33 = icmp eq i32 %25, 1048574
  br i1 %33, label %34, label %36, !prof !10

34:                                               ; preds = %32
  %35 = or i64 %21, 1152920405095219200
  store i64 %35, ptr %6, align 8
  invoke void @_ZN4cvc58internal4expr9NodeValue20markRefCountMaxedOutEv(ptr noundef nonnull align 8 dereferenceable(24) %6)
          to label %._crit_edge unwind label %50

._crit_edge:                                      ; preds = %34
  %.pre3 = load i64, ptr %6, align 8
  br label %36

36:                                               ; preds = %._crit_edge, %32, %27
  %37 = phi i64 [ %.pre3, %._crit_edge ], [ %21, %32 ], [ %31, %27 ]
  %38 = getelementptr inbounds nuw i8, ptr %0, i64 16
  store ptr %3, ptr %38, align 8, !tbaa !30
  %39 = and i64 %37, 1152920405095219200
  %.not.i.i = icmp eq i64 %39, 1152920405095219200
  br i1 %.not.i.i, label %_ZN4cvc58internal12NodeTemplateILb1EED2Ev.exit, label %40, !prof !10

40:                                               ; preds = %36
  %41 = add i64 %37, 1152920405095219200
  %42 = and i64 %41, 1152920405095219200
  %43 = and i64 %37, -1152920405095219201
  %44 = or disjoint i64 %42, %43
  store i64 %44, ptr %6, align 8
  %45 = icmp eq i64 %42, 0
  br i1 %45, label %46, label %_ZN4cvc58internal12NodeTemplateILb1EED2Ev.exit, !prof !10

46:                                               ; preds = %40
  invoke void @_ZN4cvc58internal4expr9NodeValue15markForDeletionEv(ptr noundef nonnull align 8 dereferenceable(24) %6)
          to label %_ZN4cvc58internal12NodeTemplateILb1EED2Ev.exit unwind label %47

47:                                               ; preds = %46
  %48 = landingpad { ptr, i32 }
          catch ptr null
  %49 = extractvalue { ptr, i32 } %48, 0
  tail call void @__clang_call_terminate(ptr %49) #18
  unreachable

_ZN4cvc58internal12NodeTemplateILb1EED2Ev.exit:   ; preds = %36, %40, %46
  ret void

50:                                               ; preds = %34
  %51 = landingpad { ptr, i32 }
          cleanup
  call void @_ZN4cvc58internal12NodeTemplateILb1EED2Ev(ptr noundef nonnull align 8 dereferenceable(8) %5) #17
  resume { ptr, i32 } %51
}